; ModuleID = '55/1450.c'
source_filename = "55/1450.c"
target datalayout = "e-m:e-p270:32:32-p271:32:32-p272:64:64-i64:64-f80:128-n8:16:32:64-S128"
target triple = "x86_64-pc-linux-gnu"

@.str = private unnamed_addr constant [7 x i8] c"%d%s%d\00", align 1
@.str.1 = private unnamed_addr constant [2 x i8] c"0\00", align 1
@.str.2 = private unnamed_addr constant [3 x i8] c"%c\00", align 1

; Function Attrs: noinline nounwind uwtable
define dso_local void @main() #0 {
  %1 = alloca i32, align 4
  %2 = alloca i32, align 4
  %3 = alloca i32, align 4
  %4 = alloca i32, align 4
  %5 = alloca i32, align 4
  %6 = alloca i32, align 4
  %7 = alloca i64, align 8
  %8 = alloca [100 x i8], align 16
  %9 = alloca [100 x i8], align 16
  store i64 0, i64* %7, align 8
  %10 = getelementptr inbounds [100 x i8], [100 x i8]* %8, i64 0, i64 0
  %11 = call i32 (i8*, ...) @__isoc99_scanf(i8* getelementptr inbounds ([7 x i8], [7 x i8]* @.str, i64 0, i64 0), i32* %1, i8* %10, i32* %2)
  %12 = getelementptr inbounds [100 x i8], [100 x i8]* %8, i64 0, i64 0
  %13 = call i64 @strlen(i8* %12) #3
  %14 = trunc i64 %13 to i32
  store i32 %14, i32* %3, align 4
  store i32 0, i32* %4, align 4
  br label %15

15:                                               ; preds = %38, %0
  %16 = load i32, i32* %4, align 4
  %17 = load i32, i32* %3, align 4
  %18 = icmp slt i32 %16, %17
  br i1 %18, label %19, label %41

19:                                               ; preds = %15
  %20 = load i32, i32* %4, align 4
  %21 = sext i32 %20 to i64
  %22 = getelementptr inbounds [100 x i8], [100 x i8]* %8, i64 0, i64 %21
  %23 = load i8, i8* %22, align 1
  %24 = sext i8 %23 to i32
  %25 = icmp sgt i32 %24, 96
  br i1 %25, label %26, label %37

26:                                               ; preds = %19
  %27 = load i32, i32* %4, align 4
  %28 = sext i32 %27 to i64
  %29 = getelementptr inbounds [100 x i8], [100 x i8]* %8, i64 0, i64 %28
  %30 = load i8, i8* %29, align 1
  %31 = sext i8 %30 to i32
  %32 = sub nsw i32 %31, 32
  %33 = trunc i32 %32 to i8
  %34 = load i32, i32* %4, align 4
  %35 = sext i32 %34 to i64
  %36 = getelementptr inbounds [100 x i8], [100 x i8]* %8, i64 0, i64 %35
  store i8 %33, i8* %36, align 1
  br label %37

37:                                               ; preds = %26, %19
  br label %38

38:                                               ; preds = %37
  %39 = load i32, i32* %4, align 4
  %40 = add nsw i32 %39, 1
  store i32 %40, i32* %4, align 4
  br label %15

41:                                               ; preds = %15
  store i32 0, i32* %4, align 4
  br label %42

42:                                               ; preds = %80, %41
  %43 = load i32, i32* %4, align 4
  %44 = load i32, i32* %3, align 4
  %45 = icmp slt i32 %43, %44
  br i1 %45, label %46, label %83

46:                                               ; preds = %42
  %47 = load i32, i32* %4, align 4
  %48 = sext i32 %47 to i64
  %49 = getelementptr inbounds [100 x i8], [100 x i8]* %8, i64 0, i64 %48
  %50 = load i8, i8* %49, align 1
  %51 = sext i8 %50 to i32
  %52 = icmp sgt i32 %51, 64
  br i1 %52, label %53, label %66

53:                                               ; preds = %46
  %54 = load i64, i64* %7, align 8
  %55 = load i32, i32* %1, align 4
  %56 = sext i32 %55 to i64
  %57 = mul nsw i64 %54, %56
  %58 = load i32, i32* %4, align 4
  %59 = sext i32 %58 to i64
  %60 = getelementptr inbounds [100 x i8], [100 x i8]* %8, i64 0, i64 %59
  %61 = load i8, i8* %60, align 1
  %62 = sext i8 %61 to i32
  %63 = sub nsw i32 %62, 55
  %64 = sext i32 %63 to i64
  %65 = add nsw i64 %57, %64
  store i64 %65, i64* %7, align 8
  br label %79

66:                                               ; preds = %46
  %67 = load i64, i64* %7, align 8
  %68 = load i32, i32* %1, align 4
  %69 = sext i32 %68 to i64
  %70 = mul nsw i64 %67, %69
  %71 = load i32, i32* %4, align 4
  %72 = sext i32 %71 to i64
  %73 = getelementptr inbounds [100 x i8], [100 x i8]* %8, i64 0, i64 %72
  %74 = load i8, i8* %73, align 1
  %75 = sext i8 %74 to i32
  %76 = sub nsw i32 %75, 48
  %77 = sext i32 %76 to i64
  %78 = add nsw i64 %70, %77
  store i64 %78, i64* %7, align 8
  br label %79

79:                                               ; preds = %66, %53
  br label %80

80:                                               ; preds = %79
  %81 = load i32, i32* %4, align 4
  %82 = add nsw i32 %81, 1
  store i32 %82, i32* %4, align 4
  br label %42

83:                                               ; preds = %42
  %84 = load i64, i64* %7, align 8
  %85 = icmp eq i64 %84, 0
  br i1 %85, label %86, label %88

86:                                               ; preds = %83
  %87 = call i32 (i8*, ...) @printf(i8* getelementptr inbounds ([2 x i8], [2 x i8]* @.str.1, i64 0, i64 0))
  br label %140

88:                                               ; preds = %83
  store i32 0, i32* %4, align 4
  br label %89

89:                                               ; preds = %119, %88
  %90 = load i64, i64* %7, align 8
  %91 = icmp sgt i64 %90, 0
  br i1 %91, label %92, label %122

92:                                               ; preds = %89
  %93 = load i64, i64* %7, align 8
  %94 = load i32, i32* %2, align 4
  %95 = sext i32 %94 to i64
  %96 = srem i64 %93, %95
  %97 = trunc i64 %96 to i32
  store i32 %97, i32* %5, align 4
  %98 = load i64, i64* %7, align 8
  %99 = load i32, i32* %2, align 4
  %100 = sext i32 %99 to i64
  %101 = sdiv i64 %98, %100
  store i64 %101, i64* %7, align 8
  %102 = load i32, i32* %5, align 4
  %103 = icmp sgt i32 %102, 9
  br i1 %103, label %104, label %111

104:                                              ; preds = %92
  %105 = load i32, i32* %5, align 4
  %106 = add nsw i32 %105, 55
  %107 = trunc i32 %106 to i8
  %108 = load i32, i32* %4, align 4
  %109 = sext i32 %108 to i64
  %110 = getelementptr inbounds [100 x i8], [100 x i8]* %9, i64 0, i64 %109
  store i8 %107, i8* %110, align 1
  br label %118

111:                                              ; preds = %92
  %112 = load i32, i32* %5, align 4
  %113 = add nsw i32 %112, 48
  %114 = trunc i32 %113 to i8
  %115 = load i32, i32* %4, align 4
  %116 = sext i32 %115 to i64
  %117 = getelementptr inbounds [100 x i8], [100 x i8]* %9, i64 0, i64 %116
  store i8 %114, i8* %117, align 1
  br label %118

118:                                              ; preds = %111, %104
  br label %119

119:                                              ; preds = %118
  %120 = load i32, i32* %4, align 4
  %121 = add nsw i32 %120, 1
  store i32 %121, i32* %4, align 4
  br label %89

122:                                              ; preds = %89
  store i32 1, i32* %6, align 4
  br label %123

123:                                              ; preds = %136, %122
  %124 = load i32, i32* %6, align 4
  %125 = load i32, i32* %4, align 4
  %126 = icmp sle i32 %124, %125
  br i1 %126, label %127, label %139

127:                                              ; preds = %123
  %128 = load i32, i32* %4, align 4
  %129 = load i32, i32* %6, align 4
  %130 = sub nsw i32 %128, %129
  %131 = sext i32 %130 to i64
  %132 = getelementptr inbounds [100 x i8], [100 x i8]* %9, i64 0, i64 %131
  %133 = load i8, i8* %132, align 1
  %134 = sext i8 %133 to i32
  %135 = call i32 (i8*, ...) @printf(i8* getelementptr inbounds ([3 x i8], [3 x i8]* @.str.2, i64 0, i64 0), i32 %134)
  br label %136

136:                                              ; preds = %127
  %137 = load i32, i32* %6, align 4
  %138 = add nsw i32 %137, 1
  store i32 %138, i32* %6, align 4
  br label %123

139:                                              ; preds = %123
  br label %140

140:                                              ; preds = %139, %86
  ret void
}

declare dso_local i32 @__isoc99_scanf(i8*, ...) #1

; Function Attrs: nounwind readonly
declare dso_local i64 @strlen(i8*) #2

declare dso_local i32 @printf(i8*, ...) #1


!llvm.module.flags = !{!0}
!llvm.ident = !{!1}

!0 = !{i32 1, !"wchar_size", i32 4}
!1 = !{!"clang version 10.0.0-4ubuntu1 "}
